; Function Attrs: mustprogress nofree norecurse nosync nounwind willreturn memory(readwrite, inaccessiblemem: none) uwtable
define internal void @start_input_pass(ptr noundef captures(none) initializes((176, 180)) %0) #3 {
  %2 = getelementptr inbounds nuw i8, ptr %0, i64 176
  store i32 0, ptr %2, align 8, !tbaa !67
  %3 = getelementptr inbounds nuw i8, ptr %0, i64 560
  %4 = load ptr, ptr %3, align 8, !tbaa !39
  %5 = getelementptr inbounds nuw i8, ptr %0, i64 432
  %6 = load i32, ptr %5, align 8, !tbaa !68
  %7 = icmp sgt i32 %6, 1
  br i1 %7, label %8, label %10

8:                                                ; preds = %1
  %9 = getelementptr inbounds nuw i8, ptr %4, i64 80
  store i32 1, ptr %9, align 8, !tbaa !69
  br label %start_iMCU_row.exit

10:                                               ; preds = %1
  %11 = getelementptr inbounds nuw i8, ptr %0, i64 420
  %12 = load i32, ptr %11, align 4, !tbaa !70
  %.not = icmp eq i32 %12, 1
  %13 = getelementptr inbounds nuw i8, ptr %0, i64 440
  %14 = load ptr, ptr %13, align 8, !tbaa !71
  %15 = getelementptr inbounds nuw i8, ptr %4, i64 80
  br i1 %.not, label %19, label %16

16:                                               ; preds = %10
  %17 = getelementptr inbounds nuw i8, ptr %14, i64 12
  %18 = load i32, ptr %17, align 4, !tbaa !49
  store i32 %18, ptr %15, align 8, !tbaa !69
  br label %start_iMCU_row.exit

19:                                               ; preds = %10
  %20 = getelementptr inbounds nuw i8, ptr %14, i64 72
  %21 = load i32, ptr %20, align 8, !tbaa !72
  store i32 %21, ptr %15, align 8, !tbaa !69
  br label %start_iMCU_row.exit

start_iMCU_row.exit:                              ; preds = %8, %16, %19
  %22 = getelementptr inbounds nuw i8, ptr %4, i64 72
  store i32 0, ptr %22, align 8, !tbaa !73
  %23 = getelementptr inbounds nuw i8, ptr %4, i64 76
  store i32 0, ptr %23, align 4, !tbaa !74
  ret void
}